; ModuleID = '3/1684.c'
source_filename = "3/1684.c"
target datalayout = "e-m:e-p270:32:32-p271:32:32-p272:64:64-i64:64-f80:128-n8:16:32:64-S128"
target triple = "x86_64-pc-linux-gnu"

@.str = private unnamed_addr constant [5 x i8] c"%d%d\00", align 1
@.str.1 = private unnamed_addr constant [3 x i8] c"%d\00", align 1
@.str.2 = private unnamed_addr constant [4 x i8] c"yes\00", align 1
@.str.3 = private unnamed_addr constant [3 x i8] c"no\00", align 1

; Function Attrs: noinline nounwind uwtable
define dso_local i32 @main() #0 {
  %1 = alloca i32, align 4
  %2 = alloca [1000 x i32], align 16
  %3 = alloca i32, align 4
  %4 = alloca i32, align 4
  %5 = alloca i32, align 4
  %6 = alloca i32, align 4
  %7 = alloca i32, align 4
  %8 = alloca i32, align 4
  %9 = alloca i32, align 4
  %10 = alloca i32, align 4
  store i32 0, i32* %1, align 4
  store i32 0, i32* %7, align 4
  %11 = call i32 (i8*, ...) @__isoc99_scanf(i8* getelementptr inbounds ([5 x i8], [5 x i8]* @.str, i64 0, i64 0), i32* %3, i32* %4)
  store i32 0, i32* %5, align 4
  br label %12

12:                                               ; preds = %21, %0
  %13 = load i32, i32* %5, align 4
  %14 = load i32, i32* %3, align 4
  %15 = icmp slt i32 %13, %14
  br i1 %15, label %16, label %24

16:                                               ; preds = %12
  %17 = load i32, i32* %5, align 4
  %18 = sext i32 %17 to i64
  %19 = getelementptr inbounds [1000 x i32], [1000 x i32]* %2, i64 0, i64 %18
  %20 = call i32 (i8*, ...) @__isoc99_scanf(i8* getelementptr inbounds ([3 x i8], [3 x i8]* @.str.1, i64 0, i64 0), i32* %19)
  br label %21

21:                                               ; preds = %16
  %22 = load i32, i32* %5, align 4
  %23 = add nsw i32 %22, 1
  store i32 %23, i32* %5, align 4
  br label %12

24:                                               ; preds = %12
  store i32 0, i32* %5, align 4
  br label %25

25:                                               ; preds = %70, %24
  %26 = load i32, i32* %5, align 4
  %27 = load i32, i32* %3, align 4
  %28 = sub nsw i32 %27, 1
  %29 = icmp slt i32 %26, %28
  br i1 %29, label %30, label %73

30:                                               ; preds = %25
  %31 = load i32, i32* %5, align 4
  store i32 %31, i32* %8, align 4
  %32 = load i32, i32* %5, align 4
  %33 = add nsw i32 %32, 1
  store i32 %33, i32* %6, align 4
  br label %34

34:                                               ; preds = %51, %30
  %35 = load i32, i32* %6, align 4
  %36 = load i32, i32* %3, align 4
  %37 = icmp slt i32 %35, %36
  br i1 %37, label %38, label %54

38:                                               ; preds = %34
  %39 = load i32, i32* %6, align 4
  %40 = sext i32 %39 to i64
  %41 = getelementptr inbounds [1000 x i32], [1000 x i32]* %2, i64 0, i64 %40
  %42 = load i32, i32* %41, align 4
  %43 = load i32, i32* %8, align 4
  %44 = sext i32 %43 to i64
  %45 = getelementptr inbounds [1000 x i32], [1000 x i32]* %2, i64 0, i64 %44
  %46 = load i32, i32* %45, align 4
  %47 = icmp slt i32 %42, %46
  br i1 %47, label %48, label %50

48:                                               ; preds = %38
  %49 = load i32, i32* %6, align 4
  store i32 %49, i32* %8, align 4
  br label %50

50:                                               ; preds = %48, %38
  br label %51

51:                                               ; preds = %50
  %52 = load i32, i32* %6, align 4
  %53 = add nsw i32 %52, 1
  store i32 %53, i32* %6, align 4
  br label %34

54:                                               ; preds = %34
  %55 = load i32, i32* %5, align 4
  %56 = sext i32 %55 to i64
  %57 = getelementptr inbounds [1000 x i32], [1000 x i32]* %2, i64 0, i64 %56
  %58 = load i32, i32* %57, align 4
  store i32 %58, i32* %9, align 4
  %59 = load i32, i32* %8, align 4
  %60 = sext i32 %59 to i64
  %61 = getelementptr inbounds [1000 x i32], [1000 x i32]* %2, i64 0, i64 %60
  %62 = load i32, i32* %61, align 4
  %63 = load i32, i32* %5, align 4
  %64 = sext i32 %63 to i64
  %65 = getelementptr inbounds [1000 x i32], [1000 x i32]* %2, i64 0, i64 %64
  store i32 %62, i32* %65, align 4
  %66 = load i32, i32* %9, align 4
  %67 = load i32, i32* %8, align 4
  %68 = sext i32 %67 to i64
  %69 = getelementptr inbounds [1000 x i32], [1000 x i32]* %2, i64 0, i64 %68
  store i32 %66, i32* %69, align 4
  br label %70

70:                                               ; preds = %54
  %71 = load i32, i32* %5, align 4
  %72 = add nsw i32 %71, 1
  store i32 %72, i32* %5, align 4
  br label %25

73:                                               ; preds = %25
  store i32 0, i32* %5, align 4
  %74 = load i32, i32* %3, align 4
  %75 = sub nsw i32 %74, 1
  store i32 %75, i32* %6, align 4
  br label %76

76:                                               ; preds = %105, %73
  %77 = load i32, i32* %5, align 4
  %78 = load i32, i32* %6, align 4
  %79 = icmp slt i32 %77, %78
  br i1 %79, label %80, label %106

80:                                               ; preds = %76
  %81 = load i32, i32* %5, align 4
  %82 = sext i32 %81 to i64
  %83 = getelementptr inbounds [1000 x i32], [1000 x i32]* %2, i64 0, i64 %82
  %84 = load i32, i32* %83, align 4
  %85 = load i32, i32* %6, align 4
  %86 = sext i32 %85 to i64
  %87 = getelementptr inbounds [1000 x i32], [1000 x i32]* %2, i64 0, i64 %86
  %88 = load i32, i32* %87, align 4
  %89 = add nsw i32 %84, %88
  store i32 %89, i32* %10, align 4
  %90 = load i32, i32* %10, align 4
  %91 = load i32, i32* %4, align 4
  %92 = icmp eq i32 %90, %91
  br i1 %92, label %93, label %94

93:                                               ; preds = %80
  store i32 1, i32* %7, align 4
  br label %106

94:                                               ; preds = %80
  %95 = load i32, i32* %10, align 4
  %96 = load i32, i32* %4, align 4
  %97 = icmp sgt i32 %95, %96
  br i1 %97, label %98, label %101

98:                                               ; preds = %94
  %99 = load i32, i32* %6, align 4
  %100 = add nsw i32 %99, -1
  store i32 %100, i32* %6, align 4
  br label %104

101:                                              ; preds = %94
  %102 = load i32, i32* %5, align 4
  %103 = add nsw i32 %102, 1
  store i32 %103, i32* %5, align 4
  br label %104

104:                                              ; preds = %101, %98
  br label %105

105:                                              ; preds = %104
  br label %76

106:                                              ; preds = %93, %76
  %107 = load i32, i32* %7, align 4
  %108 = icmp ne i32 %107, 0
  br i1 %108, label %109, label %111

109:                                              ; preds = %106
  %110 = call i32 (i8*, ...) @printf(i8* getelementptr inbounds ([4 x i8], [4 x i8]* @.str.2, i64 0, i64 0))
  br label %113

111:                                              ; preds = %106
  %112 = call i32 (i8*, ...) @printf(i8* getelementptr inbounds ([3 x i8], [3 x i8]* @.str.3, i64 0, i64 0))
  br label %113

113:                                              ; preds = %111, %109
  ret i32 0
}

declare dso_local i32 @__isoc99_scanf(i8*, ...) #1

declare dso_local i32 @printf(i8*, ...) #1


!llvm.module.flags = !{!0}
!llvm.ident = !{!1}

!0 = !{i32 1, !"wchar_size", i32 4}
!1 = !{!"clang version 10.0.0-4ubuntu1 "}
